
program.elf:     file format elf32-littleriscv


Disassembly of section .text:

00000000 <_start>:
   0:	00020137          	lui	sp,0x20
   4:	00010113          	mv	sp,sp
   8:	1be00513          	li	a0,446
   c:	1be00593          	li	a1,446

00000010 <clear_bss>:
  10:	00b50863          	beq	a0,a1,20 <bss_done>
  14:	00052023          	sw	zero,0(a0)
  18:	00450513          	addi	a0,a0,4
  1c:	ff5ff06f          	j	10 <clear_bss>

00000020 <bss_done>:
  20:	008000ef          	jal	28 <main>

00000024 <_halt>:
  24:	0000006f          	j	24 <_halt>

00000028 <main>:
  28:	800007b7          	lui	a5,0x80000
  2c:	0147a703          	lw	a4,20(a5) # 80000014 <_stack_top+0x7ffe0014>
  30:	fd010113          	addi	sp,sp,-48 # 1ffd0 <counter+0x1fe10>
  34:	02112623          	sw	ra,44(sp)
  38:	02812423          	sw	s0,40(sp)
  3c:	02912223          	sw	s1,36(sp)
  40:	03212023          	sw	s2,32(sp)
  44:	01312e23          	sw	s3,28(sp)
  48:	01412c23          	sw	s4,24(sp)
  4c:	01512a23          	sw	s5,20(sp)
  50:	01612823          	sw	s6,16(sp)
  54:	01712623          	sw	s7,12(sp)
  58:	01812423          	sw	s8,8(sp)
  5c:	ffe77713          	andi	a4,a4,-2
  60:	17c00513          	li	a0,380
  64:	00e7aa23          	sw	a4,20(a5)
  68:	084000ef          	jal	ec <print>
  6c:	19c00513          	li	a0,412
  70:	80000b37          	lui	s6,0x80000
  74:	80000ab7          	lui	s5,0x80000
  78:	80000a37          	lui	s4,0x80000
  7c:	070000ef          	jal	ec <print>
  80:	18c00b93          	li	s7,396
  84:	004b0b13          	addi	s6,s6,4 # 80000004 <_stack_top+0x7ffe0004>
  88:	008a8a93          	addi	s5,s5,8 # 80000008 <_stack_top+0x7ffe0008>
  8c:	010a0a13          	addi	s4,s4,16 # 80000010 <_stack_top+0x7ffe0010>
  90:	00000993          	li	s3,0
  94:	00a00913          	li	s2,10
  98:	02c00493          	li	s1,44
  9c:	0ff00413          	li	s0,255
  a0:	1c002783          	lw	a5,448(zero) # 1c0 <counter>
  a4:	00178793          	addi	a5,a5,1
  a8:	fef47ee3          	bgeu	s0,a5,a4 <main+0x7c>
  ac:	000b8513          	mv	a0,s7
  b0:	1c002023          	sw	zero,448(zero) # 1c0 <counter>
  b4:	038000ef          	jal	ec <print>
  b8:	012b2023          	sw	s2,0(s6)
  bc:	009aa023          	sw	s1,0(s5)
  c0:	000a2783          	lw	a5,0(s4)
  c4:	00001537          	lui	a0,0x1
  c8:	bb850513          	addi	a0,a0,-1096 # bb8 <counter+0x9f8>
  cc:	ffe7f793          	andi	a5,a5,-2
  d0:	0137e7b3          	or	a5,a5,s3
  d4:	00fa2023          	sw	a5,0(s4)
  d8:	00f94913          	xori	s2,s2,15
  dc:	03f4c493          	xori	s1,s1,63
  e0:	0019c993          	xori	s3,s3,1
  e4:	038000ef          	jal	11c <wait_ms>
  e8:	fb9ff06f          	j	a0 <main+0x78>

000000ec <print>:
  ec:	00054703          	lbu	a4,0(a0)
  f0:	80000637          	lui	a2,0x80000
  f4:	00c60613          	addi	a2,a2,12 # 8000000c <_stack_top+0x7ffe000c>
  f8:	00000793          	li	a5,0
  fc:	00070e63          	beqz	a4,118 <print+0x2c>
 100:	00178793          	addi	a5,a5,1
 104:	00e62023          	sw	a4,0(a2)
 108:	f0078693          	addi	a3,a5,-256
 10c:	00f50733          	add	a4,a0,a5
 110:	00074703          	lbu	a4,0(a4)
 114:	fe0694e3          	bnez	a3,fc <print+0x10>
 118:	00008067          	ret

0000011c <wait_ms>:
 11c:	00151793          	slli	a5,a0,0x1
 120:	00a787b3          	add	a5,a5,a0
 124:	00679713          	slli	a4,a5,0x6
 128:	00e78733          	add	a4,a5,a4
 12c:	00271713          	slli	a4,a4,0x2
 130:	00a70733          	add	a4,a4,a0
 134:	800006b7          	lui	a3,0x80000
 138:	00271713          	slli	a4,a4,0x2
 13c:	0006a603          	lw	a2,0(a3) # 80000000 <_stack_top+0x7ffe0000>
 140:	00a70733          	add	a4,a4,a0
 144:	00571713          	slli	a4,a4,0x5
 148:	0006a783          	lw	a5,0(a3)
 14c:	40c787b3          	sub	a5,a5,a2
 150:	fee7ece3          	bltu	a5,a4,148 <wait_ms+0x2c>
 154:	00008067          	ret

00000158 <print_int>:
 158:	800007b7          	lui	a5,0x80000
 15c:	01855713          	srli	a4,a0,0x18
 160:	00e7a623          	sw	a4,12(a5) # 8000000c <_stack_top+0x7ffe000c>
 164:	01055713          	srli	a4,a0,0x10
 168:	00e7a623          	sw	a4,12(a5)
 16c:	00855713          	srli	a4,a0,0x8
 170:	00e7a623          	sw	a4,12(a5)
 174:	00a7a623          	sw	a0,12(a5)
 178:	00008067          	ret
 17c:	6e45                	.insn	2, 0x6e45
 17e:	6574                	.insn	2, 0x6574
 180:	6572                	.insn	2, 0x6572
 182:	2064                	.insn	2, 0x2064
 184:	614d                	.insn	2, 0x614d
 186:	6e69                	.insn	2, 0x6e69
 188:	0a0d                	.insn	2, 0x0a0d
 18a:	0000                	.insn	2, 0x0000
 18c:	6e756f43          	.insn	4, 0x6e756f43
 190:	6574                	.insn	2, 0x6574
 192:	2072                	.insn	2, 0x2072
 194:	6572                	.insn	2, 0x6572
 196:	0d746573          	.insn	4, 0x0d746573
 19a:	000a                	.insn	2, 0x000a
